; Function Attrs: mustprogress uwtable
define hidden range(i32 0, 2) i32 @hb_paint_color_glyph(ptr noundef %0, ptr noundef %1, i32 noundef %2, ptr noundef %3) local_unnamed_addr #0 {
  %5 = getelementptr inbounds i8, ptr %0, i64 32
  %6 = load ptr, ptr %5, align 8
  %7 = getelementptr inbounds i8, ptr %0, i64 128
  %8 = load ptr, ptr %7, align 8
  %.not.i = icmp eq ptr %8, null
  br i1 %.not.i, label %_ZN16hb_paint_funcs_t11color_glyphEPvjP9hb_font_t.exit, label %9

9:                                                ; preds = %4
  %10 = getelementptr inbounds i8, ptr %8, i64 24
  %11 = load ptr, ptr %10, align 8
  br label %_ZN16hb_paint_funcs_t11color_glyphEPvjP9hb_font_t.exit

_ZN16hb_paint_funcs_t11color_glyphEPvjP9hb_font_t.exit: ; preds = %4, %9
  %12 = phi ptr [ %11, %9 ], [ null, %4 ]
  %13 = tail call noundef i32 %6(ptr noundef nonnull %0, ptr noundef %1, i32 noundef %2, ptr noundef %3, ptr noundef %12)
  %14 = icmp ne i32 %13, 0
  %15 = zext i1 %14 to i32
  ret i32 %15
}